target datalayout = "e-m:e-p270:32:32-p271:32:32-p272:64:64-i64:64-i128:128-f80:128-n8:16:32:64-S128"
target triple = "x86_64-pc-linux-gnu"

%struct.AVFilterLink = type { ptr, ptr, ptr, ptr, i32, i32, i32, i32, %struct.AVRational, i32, i32, i32, %struct.AVChannelLayout, %struct.AVRational, ptr, i32, %struct.AVFilterFormatsConfig, %struct.AVFilterFormatsConfig }
%struct.AVChannelLayout = type { i32, i32, %union.anon.1, ptr }
%union.anon.1 = type { i64 }
%struct.AVRational = type { i32, i32 }
%struct.AVFilterFormatsConfig = type { ptr, ptr, ptr, ptr, ptr }
%struct.AVFilterContext = type { ptr, ptr, ptr, ptr, ptr, i32, ptr, ptr, i32, ptr, ptr, i32, i32, ptr, ptr, ptr, ptr, i32, ptr, i32, i32 }
%struct.AVFrame = type { [8 x ptr], [8 x i32], ptr, i32, i32, i32, i32, i32, %struct.AVRational, i64, i64, %struct.AVRational, i32, ptr, i32, i32, [8 x ptr], ptr, i32, ptr, i32, i32, i32, i32, i32, i32, i32, i64, ptr, i32, ptr, ptr, i64, i64, i64, i64, ptr, %struct.AVChannelLayout, i64 }
%struct.VolDetectContext = type { [65537 x i64] }

; Function Attrs: nounwind uwtable
define internal i32 @filter_frame(ptr noundef %0, ptr noundef %1) #1 {
  %3 = alloca ptr, align 8
  %4 = alloca ptr, align 8
  %5 = alloca ptr, align 8
  %6 = alloca ptr, align 8
  %7 = alloca i32, align 4
  %8 = alloca i32, align 4
  %9 = alloca i32, align 4
  %10 = alloca i32, align 4
  %11 = alloca i32, align 4
  %12 = alloca ptr, align 8
  store ptr %0, ptr %3, align 8, !tbaa !9
  store ptr %1, ptr %4, align 8, !tbaa !11
  call void @llvm.lifetime.start.p0(i64 8, ptr %5) #9
  %13 = load ptr, ptr %3, align 8, !tbaa !9
  %14 = getelementptr inbounds nuw %struct.AVFilterLink, ptr %13, i32 0, i32 2
  %15 = load ptr, ptr %14, align 8, !tbaa !13
  store ptr %15, ptr %5, align 8, !tbaa !4
  call void @llvm.lifetime.start.p0(i64 8, ptr %6) #9
  %16 = load ptr, ptr %5, align 8, !tbaa !4
  %17 = getelementptr inbounds nuw %struct.AVFilterContext, ptr %16, i32 0, i32 9
  %18 = load ptr, ptr %17, align 8, !tbaa !24
  store ptr %18, ptr %6, align 8, !tbaa !34
  call void @llvm.lifetime.start.p0(i64 4, ptr %7) #9
  %19 = load ptr, ptr %4, align 8, !tbaa !11
  %20 = getelementptr inbounds nuw %struct.AVFrame, ptr %19, i32 0, i32 5
  %21 = load i32, ptr %20, align 8, !tbaa !36
  store i32 %21, ptr %7, align 4, !tbaa !42
  call void @llvm.lifetime.start.p0(i64 4, ptr %8) #9
  %22 = load ptr, ptr %4, align 8, !tbaa !11
  %23 = getelementptr inbounds nuw %struct.AVFrame, ptr %22, i32 0, i32 37
  %24 = getelementptr inbounds nuw %struct.AVChannelLayout, ptr %23, i32 0, i32 1
  %25 = load i32, ptr %24, align 4, !tbaa !43
  store i32 %25, ptr %8, align 4, !tbaa !42
  call void @llvm.lifetime.start.p0(i64 4, ptr %9) #9
  %26 = load i32, ptr %8, align 4, !tbaa !42
  store i32 %26, ptr %9, align 4, !tbaa !42
  call void @llvm.lifetime.start.p0(i64 4, ptr %10) #9
  call void @llvm.lifetime.start.p0(i64 4, ptr %11) #9
  call void @llvm.lifetime.start.p0(i64 8, ptr %12) #9
  %27 = load ptr, ptr %4, align 8, !tbaa !11
  %28 = getelementptr inbounds nuw %struct.AVFrame, ptr %27, i32 0, i32 6
  %29 = load i32, ptr %28, align 4, !tbaa !44
  %30 = call i32 @av_sample_fmt_is_planar(i32 noundef %29)
  %31 = icmp ne i32 %30, 0
  br i1 %31, label %36, label %32

32:                                               ; preds = %2
  %33 = load i32, ptr %8, align 4, !tbaa !42
  %34 = load i32, ptr %7, align 4, !tbaa !42
  %35 = mul nsw i32 %34, %33
  store i32 %35, ptr %7, align 4, !tbaa !42
  store i32 1, ptr %9, align 4, !tbaa !42
  br label %36

36:                                               ; preds = %32, %2
  store i32 0, ptr %10, align 4, !tbaa !42
  br label %37

37:                                               ; preds = %71, %36
  %38 = load i32, ptr %10, align 4, !tbaa !42
  %39 = load i32, ptr %9, align 4, !tbaa !42
  %40 = icmp slt i32 %38, %39
  br i1 %40, label %41, label %74

41:                                               ; preds = %37
  %42 = load ptr, ptr %4, align 8, !tbaa !11
  %43 = getelementptr inbounds nuw %struct.AVFrame, ptr %42, i32 0, i32 2
  %44 = load ptr, ptr %43, align 8, !tbaa !45
  %45 = load i32, ptr %10, align 4, !tbaa !42
  %46 = sext i32 %45 to i64
  %47 = getelementptr inbounds ptr, ptr %44, i64 %46
  %48 = load ptr, ptr %47, align 8, !tbaa !46
  store ptr %48, ptr %12, align 8, !tbaa !47
  store i32 0, ptr %11, align 4, !tbaa !42
  br label %49

49:                                               ; preds = %67, %41
  %50 = load i32, ptr %11, align 4, !tbaa !42
  %51 = load i32, ptr %7, align 4, !tbaa !42
  %52 = icmp slt i32 %50, %51
  br i1 %52, label %53, label %70

53:                                               ; preds = %49
  %54 = load ptr, ptr %6, align 8, !tbaa !34
  %55 = getelementptr inbounds nuw %struct.VolDetectContext, ptr %54, i32 0, i32 0
  %56 = load ptr, ptr %12, align 8, !tbaa !47
  %57 = load i32, ptr %11, align 4, !tbaa !42
  %58 = sext i32 %57 to i64
  %59 = getelementptr inbounds i16, ptr %56, i64 %58
  %60 = load i16, ptr %59, align 2, !tbaa !49
  %61 = sext i16 %60 to i32
  %62 = add nsw i32 %61, 32768
  %63 = sext i32 %62 to i64
  %64 = getelementptr inbounds [65537 x i64], ptr %55, i64 0, i64 %63
  %65 = load i64, ptr %64, align 8, !tbaa !51
  %66 = add i64 %65, 1
  store i64 %66, ptr %64, align 8, !tbaa !51
  br label %67

67:                                               ; preds = %53
  %68 = load i32, ptr %11, align 4, !tbaa !42
  %69 = add nsw i32 %68, 1
  store i32 %69, ptr %11, align 4, !tbaa !42
  br label %49, !llvm.loop !52

70:                                               ; preds = %49
  br label %71

71:                                               ; preds = %70
  %72 = load i32, ptr %10, align 4, !tbaa !42
  %73 = add nsw i32 %72, 1
  store i32 %73, ptr %10, align 4, !tbaa !42
  br label %37, !llvm.loop !54

74:                                               ; preds = %37
  %75 = load ptr, ptr %3, align 8, !tbaa !9
  %76 = getelementptr inbounds nuw %struct.AVFilterLink, ptr %75, i32 0, i32 2
  %77 = load ptr, ptr %76, align 8, !tbaa !13
  %78 = getelementptr inbounds nuw %struct.AVFilterContext, ptr %77, i32 0, i32 7
  %79 = load ptr, ptr %78, align 8, !tbaa !55
  %80 = getelementptr inbounds ptr, ptr %79, i64 0
  %81 = load ptr, ptr %80, align 8, !tbaa !9
  %82 = load ptr, ptr %4, align 8, !tbaa !11
  %83 = call i32 @ff_filter_frame(ptr noundef %81, ptr noundef %82)
  call void @llvm.lifetime.end.p0(i64 8, ptr %12) #9
  call void @llvm.lifetime.end.p0(i64 4, ptr %11) #9
  call void @llvm.lifetime.end.p0(i64 4, ptr %10) #9
  call void @llvm.lifetime.end.p0(i64 4, ptr %9) #9
  call void @llvm.lifetime.end.p0(i64 4, ptr %8) #9
  call void @llvm.lifetime.end.p0(i64 4, ptr %7) #9
  call void @llvm.lifetime.end.p0(i64 8, ptr %6) #9
  call void @llvm.lifetime.end.p0(i64 8, ptr %5) #9
  ret i32 %83
}