; Function Attrs: nounwind uwtable
define internal i32 @filter_frame(ptr noundef readonly captures(none) %0, ptr noundef %1) #1 {
  %3 = getelementptr inbounds nuw i8, ptr %0, i64 16
  %4 = load ptr, ptr %3, align 8, !tbaa !30
  %5 = getelementptr inbounds nuw i8, ptr %4, i64 72
  %6 = load ptr, ptr %5, align 8, !tbaa !4
  %7 = getelementptr inbounds nuw i8, ptr %1, i64 112
  %8 = load i32, ptr %7, align 8, !tbaa !39
  %9 = getelementptr inbounds nuw i8, ptr %1, i64 388
  %10 = load i32, ptr %9, align 4, !tbaa !44
  %11 = getelementptr inbounds nuw i8, ptr %1, i64 116
  %12 = load i32, ptr %11, align 4, !tbaa !45
  %13 = tail call i32 @av_sample_fmt_is_planar(i32 noundef %12) #7
  %.not = icmp eq i32 %13, 0
  %spec.select = select i1 %.not, i32 1, i32 %10
  %14 = select i1 %.not, i32 %10, i32 1
  %spec.select23 = mul i32 %14, %8
  %15 = icmp sgt i32 %spec.select, 0
  br i1 %15, label %.lr.ph27, label %._crit_edge28

.lr.ph27:                                         ; preds = %2
  %16 = getelementptr inbounds nuw i8, ptr %1, i64 96
  %17 = load ptr, ptr %16, align 8, !tbaa !46
  %18 = icmp sgt i32 %spec.select23, 0
  br i1 %18, label %.lr.ph.us.preheader, label %._crit_edge28

.lr.ph.us.preheader:                              ; preds = %.lr.ph27
  %wide.trip.count34 = zext nneg i32 %spec.select to i64
  %wide.trip.count = zext nneg i32 %spec.select23 to i64
  br label %.lr.ph.us

.lr.ph.us:                                        ; preds = %.lr.ph.us.preheader, %._crit_edge.us
  %indvars.iv31 = phi i64 [ 0, %.lr.ph.us.preheader ], [ %indvars.iv.next32, %._crit_edge.us ]
  %19 = getelementptr inbounds nuw ptr, ptr %17, i64 %indvars.iv31
  %20 = load ptr, ptr %19, align 8, !tbaa !47
  br label %21

21:                                               ; preds = %.lr.ph.us, %21
  %indvars.iv = phi i64 [ 0, %.lr.ph.us ], [ %indvars.iv.next, %21 ]
  %22 = getelementptr inbounds nuw i16, ptr %20, i64 %indvars.iv
  %23 = load i16, ptr %22, align 2, !tbaa !48
  %24 = sext i16 %23 to i64
  %25 = add nsw i64 %24, 32768
  %26 = getelementptr inbounds nuw [65537 x i64], ptr %6, i64 0, i64 %25
  %27 = load i64, ptr %26, align 8, !tbaa !20
  %28 = add i64 %27, 1
  store i64 %28, ptr %26, align 8, !tbaa !20
  %indvars.iv.next = add nuw nsw i64 %indvars.iv, 1
  %exitcond.not = icmp eq i64 %indvars.iv.next, %wide.trip.count
  br i1 %exitcond.not, label %._crit_edge.us, label %21, !llvm.loop !50

._crit_edge.us:                                   ; preds = %21
  %indvars.iv.next32 = add nuw nsw i64 %indvars.iv31, 1
  %exitcond35.not = icmp eq i64 %indvars.iv.next32, %wide.trip.count34
  br i1 %exitcond35.not, label %._crit_edge28, label %.lr.ph.us, !llvm.loop !51

._crit_edge28:                                    ; preds = %._crit_edge.us, %.lr.ph27, %2
  %29 = load ptr, ptr %3, align 8, !tbaa !30
  %30 = getelementptr inbounds nuw i8, ptr %29, i64 56
  %31 = load ptr, ptr %30, align 8, !tbaa !52
  %32 = load ptr, ptr %31, align 8, !tbaa !53
  %33 = tail call i32 @ff_filter_frame(ptr noundef %32, ptr noundef %1) #7
  ret i32 %33
}